; Function Attrs: mustprogress uwtable
define internal void @_ZNK6google8protobuf8compiler3cpp12_GLOBAL__N_114SingularString23GenerateConstructorCodeEPNS0_2io7PrinterE(ptr nocapture noundef nonnull readonly align 8 dereferenceable(104) %this, ptr noundef %p) unnamed_addr #3 align 2 personality ptr @__gxx_personality_v0 {
entry:
  %is_inlined_.i = getelementptr inbounds i8, ptr %this, i64 72
  %0 = load i8, ptr %is_inlined_.i, align 8
  %1 = and i8 %0, 1
  %tobool.i.not = icmp eq i8 %1, 0
  br i1 %tobool.i.not, label %lor.lhs.false, label %land.lhs.true

land.lhs.true:                                    ; preds = %entry
  %2 = getelementptr inbounds i8, ptr %this, i64 88
  %this.val = load ptr, ptr %2, align 8
  %3 = getelementptr i8, ptr %this.val, i64 80
  %this.val.val = load ptr, ptr %3, align 8
  %call2.i = tail call noundef zeroext i1 @_ZNKSt7__cxx1112basic_stringIcSt11char_traitsIcESaIcEE5emptyEv(ptr noundef nonnull align 8 dereferenceable(32) %this.val.val) #27
  br i1 %call2.i, label %if.end12, label %lor.lhs.false

lor.lhs.false:                                    ; preds = %land.lhs.true, %entry
  %is_oneof_.i = getelementptr inbounds i8, ptr %this, i64 76
  %4 = load i8, ptr %is_oneof_.i, align 4
  %5 = and i8 %4, 1
  %tobool.i3.not = icmp eq i8 %5, 0
  br i1 %tobool.i3.not, label %if.end, label %if.end12

if.end:                                           ; preds = %lor.lhs.false
  tail call void @_ZN6google8protobuf2io7Printer4EmitEN4absl12lts_202308024SpanIKNS2_3SubEEESt17basic_string_viewIcSt11char_traitsIcEENS2_14SourceLocationE(ptr noundef nonnull align 8 dereferenceable(256) %p, ptr null, i64 0, i64 31, ptr nonnull @.str.100)
  %field_ = getelementptr inbounds i8, ptr %this, i64 88
  %6 = load ptr, ptr %field_, align 8
  %call5 = tail call noundef zeroext i1 @_ZN6google8protobuf8compiler3cpp8IsStringEPKNS0_15FieldDescriptorE(ptr noundef %6)
  br i1 %call5, label %land.lhs.true6, label %if.end12

land.lhs.true6:                                   ; preds = %if.end
  %this.val2 = load ptr, ptr %field_, align 8
  %7 = getelementptr i8, ptr %this.val2, i64 80
  %this.val2.val = load ptr, ptr %7, align 8
  %call2.i4 = tail call noundef zeroext i1 @_ZNKSt7__cxx1112basic_stringIcSt11char_traitsIcESaIcEE5emptyEv(ptr noundef nonnull align 8 dereferenceable(32) %this.val2.val) #27
  br i1 %call2.i4, label %if.then8, label %if.end12

if.then8:                                         ; preds = %land.lhs.true6
  tail call void @_ZN6google8protobuf2io7Printer4EmitEN4absl12lts_202308024SpanIKNS2_3SubEEESt17basic_string_viewIcSt11char_traitsIcEENS2_14SourceLocationE(ptr noundef nonnull align 8 dereferenceable(256) %p, ptr null, i64 0, i64 129, ptr nonnull @.str.101)
  br label %if.end12

if.end12:                                         ; preds = %land.lhs.true, %lor.lhs.false, %if.then8, %land.lhs.true6, %if.end
  ret void
}